; ModuleID = '33/25.c'
source_filename = "33/25.c"
target datalayout = "e-m:e-p270:32:32-p271:32:32-p272:64:64-i64:64-f80:128-n8:16:32:64-S128"
target triple = "x86_64-pc-linux-gnu"

@.str = private unnamed_addr constant [3 x i8] c"%d\00", align 1
@.str.1 = private unnamed_addr constant [3 x i8] c"%s\00", align 1
@.str.2 = private unnamed_addr constant [3 x i8] c"%c\00", align 1
@.str.3 = private unnamed_addr constant [2 x i8] c"\0A\00", align 1

; Function Attrs: noinline nounwind uwtable
define dso_local i32 @main(i32 %0, i8** %1) #0 {
  %3 = alloca i32, align 4
  %4 = alloca i32, align 4
  %5 = alloca i8**, align 8
  %6 = alloca [1000 x [399 x i8]], align 16
  %7 = alloca i32, align 4
  %8 = alloca i32, align 4
  %9 = alloca i32, align 4
  %10 = alloca [1000 x [399 x i8]], align 16
  %11 = alloca [1000 x i32], align 16
  store i32 0, i32* %3, align 4
  store i32 %0, i32* %4, align 4
  store i8** %1, i8*** %5, align 8
  %12 = call i32 (i8*, ...) @__isoc99_scanf(i8* getelementptr inbounds ([3 x i8], [3 x i8]* @.str, i64 0, i64 0), i32* %7)
  store i32 0, i32* %8, align 4
  br label %13

13:                                               ; preds = %23, %2
  %14 = load i32, i32* %8, align 4
  %15 = load i32, i32* %7, align 4
  %16 = icmp slt i32 %14, %15
  br i1 %16, label %17, label %26

17:                                               ; preds = %13
  %18 = load i32, i32* %8, align 4
  %19 = sext i32 %18 to i64
  %20 = getelementptr inbounds [1000 x [399 x i8]], [1000 x [399 x i8]]* %6, i64 0, i64 %19
  %21 = getelementptr inbounds [399 x i8], [399 x i8]* %20, i64 0, i64 0
  %22 = call i32 (i8*, ...) @__isoc99_scanf(i8* getelementptr inbounds ([3 x i8], [3 x i8]* @.str.1, i64 0, i64 0), i8* %21)
  br label %23

23:                                               ; preds = %17
  %24 = load i32, i32* %8, align 4
  %25 = add nsw i32 %24, 1
  store i32 %25, i32* %8, align 4
  br label %13

26:                                               ; preds = %13
  store i32 0, i32* %8, align 4
  br label %27

27:                                               ; preds = %124, %26
  %28 = load i32, i32* %8, align 4
  %29 = load i32, i32* %7, align 4
  %30 = icmp slt i32 %28, %29
  br i1 %30, label %31, label %127

31:                                               ; preds = %27
  %32 = load i32, i32* %8, align 4
  %33 = sext i32 %32 to i64
  %34 = getelementptr inbounds [1000 x [399 x i8]], [1000 x [399 x i8]]* %6, i64 0, i64 %33
  %35 = getelementptr inbounds [399 x i8], [399 x i8]* %34, i64 0, i64 0
  %36 = call i64 @strlen(i8* %35) #3
  %37 = trunc i64 %36 to i32
  %38 = load i32, i32* %8, align 4
  %39 = sext i32 %38 to i64
  %40 = getelementptr inbounds [1000 x i32], [1000 x i32]* %11, i64 0, i64 %39
  store i32 %37, i32* %40, align 4
  store i32 0, i32* %9, align 4
  br label %41

41:                                               ; preds = %120, %31
  %42 = load i32, i32* %9, align 4
  %43 = load i32, i32* %8, align 4
  %44 = sext i32 %43 to i64
  %45 = getelementptr inbounds [1000 x i32], [1000 x i32]* %11, i64 0, i64 %44
  %46 = load i32, i32* %45, align 4
  %47 = icmp slt i32 %42, %46
  br i1 %47, label %48, label %123

48:                                               ; preds = %41
  %49 = load i32, i32* %8, align 4
  %50 = sext i32 %49 to i64
  %51 = getelementptr inbounds [1000 x [399 x i8]], [1000 x [399 x i8]]* %6, i64 0, i64 %50
  %52 = load i32, i32* %9, align 4
  %53 = sext i32 %52 to i64
  %54 = getelementptr inbounds [399 x i8], [399 x i8]* %51, i64 0, i64 %53
  %55 = load i8, i8* %54, align 1
  %56 = sext i8 %55 to i32
  %57 = icmp eq i32 %56, 65
  br i1 %57, label %58, label %65

58:                                               ; preds = %48
  %59 = load i32, i32* %8, align 4
  %60 = sext i32 %59 to i64
  %61 = getelementptr inbounds [1000 x [399 x i8]], [1000 x [399 x i8]]* %10, i64 0, i64 %60
  %62 = load i32, i32* %9, align 4
  %63 = sext i32 %62 to i64
  %64 = getelementptr inbounds [399 x i8], [399 x i8]* %61, i64 0, i64 %63
  store i8 84, i8* %64, align 1
  br label %119

65:                                               ; preds = %48
  %66 = load i32, i32* %8, align 4
  %67 = sext i32 %66 to i64
  %68 = getelementptr inbounds [1000 x [399 x i8]], [1000 x [399 x i8]]* %6, i64 0, i64 %67
  %69 = load i32, i32* %9, align 4
  %70 = sext i32 %69 to i64
  %71 = getelementptr inbounds [399 x i8], [399 x i8]* %68, i64 0, i64 %70
  %72 = load i8, i8* %71, align 1
  %73 = sext i8 %72 to i32
  %74 = icmp eq i32 %73, 84
  br i1 %74, label %75, label %82

75:                                               ; preds = %65
  %76 = load i32, i32* %8, align 4
  %77 = sext i32 %76 to i64
  %78 = getelementptr inbounds [1000 x [399 x i8]], [1000 x [399 x i8]]* %10, i64 0, i64 %77
  %79 = load i32, i32* %9, align 4
  %80 = sext i32 %79 to i64
  %81 = getelementptr inbounds [399 x i8], [399 x i8]* %78, i64 0, i64 %80
  store i8 65, i8* %81, align 1
  br label %118

82:                                               ; preds = %65
  %83 = load i32, i32* %8, align 4
  %84 = sext i32 %83 to i64
  %85 = getelementptr inbounds [1000 x [399 x i8]], [1000 x [399 x i8]]* %6, i64 0, i64 %84
  %86 = load i32, i32* %9, align 4
  %87 = sext i32 %86 to i64
  %88 = getelementptr inbounds [399 x i8], [399 x i8]* %85, i64 0, i64 %87
  %89 = load i8, i8* %88, align 1
  %90 = sext i8 %89 to i32
  %91 = icmp eq i32 %90, 71
  br i1 %91, label %92, label %99

92:                                               ; preds = %82
  %93 = load i32, i32* %8, align 4
  %94 = sext i32 %93 to i64
  %95 = getelementptr inbounds [1000 x [399 x i8]], [1000 x [399 x i8]]* %10, i64 0, i64 %94
  %96 = load i32, i32* %9, align 4
  %97 = sext i32 %96 to i64
  %98 = getelementptr inbounds [399 x i8], [399 x i8]* %95, i64 0, i64 %97
  store i8 67, i8* %98, align 1
  br label %117

99:                                               ; preds = %82
  %100 = load i32, i32* %8, align 4
  %101 = sext i32 %100 to i64
  %102 = getelementptr inbounds [1000 x [399 x i8]], [1000 x [399 x i8]]* %6, i64 0, i64 %101
  %103 = load i32, i32* %9, align 4
  %104 = sext i32 %103 to i64
  %105 = getelementptr inbounds [399 x i8], [399 x i8]* %102, i64 0, i64 %104
  %106 = load i8, i8* %105, align 1
  %107 = sext i8 %106 to i32
  %108 = icmp eq i32 %107, 67
  br i1 %108, label %109, label %116

109:                                              ; preds = %99
  %110 = load i32, i32* %8, align 4
  %111 = sext i32 %110 to i64
  %112 = getelementptr inbounds [1000 x [399 x i8]], [1000 x [399 x i8]]* %10, i64 0, i64 %111
  %113 = load i32, i32* %9, align 4
  %114 = sext i32 %113 to i64
  %115 = getelementptr inbounds [399 x i8], [399 x i8]* %112, i64 0, i64 %114
  store i8 71, i8* %115, align 1
  br label %116

116:                                              ; preds = %109, %99
  br label %117

117:                                              ; preds = %116, %92
  br label %118

118:                                              ; preds = %117, %75
  br label %119

119:                                              ; preds = %118, %58
  br label %120

120:                                              ; preds = %119
  %121 = load i32, i32* %9, align 4
  %122 = add nsw i32 %121, 1
  store i32 %122, i32* %9, align 4
  br label %41

123:                                              ; preds = %41
  br label %124

124:                                              ; preds = %123
  %125 = load i32, i32* %8, align 4
  %126 = add nsw i32 %125, 1
  store i32 %126, i32* %8, align 4
  br label %27

127:                                              ; preds = %27
  store i32 0, i32* %8, align 4
  br label %128

128:                                              ; preds = %155, %127
  %129 = load i32, i32* %8, align 4
  %130 = load i32, i32* %7, align 4
  %131 = icmp slt i32 %129, %130
  br i1 %131, label %132, label %158

132:                                              ; preds = %128
  store i32 0, i32* %9, align 4
  br label %133

133:                                              ; preds = %150, %132
  %134 = load i32, i32* %9, align 4
  %135 = load i32, i32* %8, align 4
  %136 = sext i32 %135 to i64
  %137 = getelementptr inbounds [1000 x i32], [1000 x i32]* %11, i64 0, i64 %136
  %138 = load i32, i32* %137, align 4
  %139 = icmp slt i32 %134, %138
  br i1 %139, label %140, label %153

140:                                              ; preds = %133
  %141 = load i32, i32* %8, align 4
  %142 = sext i32 %141 to i64
  %143 = getelementptr inbounds [1000 x [399 x i8]], [1000 x [399 x i8]]* %10, i64 0, i64 %142
  %144 = load i32, i32* %9, align 4
  %145 = sext i32 %144 to i64
  %146 = getelementptr inbounds [399 x i8], [399 x i8]* %143, i64 0, i64 %145
  %147 = load i8, i8* %146, align 1
  %148 = sext i8 %147 to i32
  %149 = call i32 (i8*, ...) @printf(i8* getelementptr inbounds ([3 x i8], [3 x i8]* @.str.2, i64 0, i64 0), i32 %148)
  br label %150

150:                                              ; preds = %140
  %151 = load i32, i32* %9, align 4
  %152 = add nsw i32 %151, 1
  store i32 %152, i32* %9, align 4
  br label %133

153:                                              ; preds = %133
  %154 = call i32 (i8*, ...) @printf(i8* getelementptr inbounds ([2 x i8], [2 x i8]* @.str.3, i64 0, i64 0))
  br label %155

155:                                              ; preds = %153
  %156 = load i32, i32* %8, align 4
  %157 = add nsw i32 %156, 1
  store i32 %157, i32* %8, align 4
  br label %128

158:                                              ; preds = %128
  ret i32 0
}

declare dso_local i32 @__isoc99_scanf(i8*, ...) #1

; Function Attrs: nounwind readonly
declare dso_local i64 @strlen(i8*) #2

declare dso_local i32 @printf(i8*, ...) #1


!llvm.module.flags = !{!0}
!llvm.ident = !{!1}

!0 = !{i32 1, !"wchar_size", i32 4}
!1 = !{!"clang version 10.0.0-4ubuntu1 "}
